target datalayout = "e-m:e-p270:32:32-p271:32:32-p272:64:64-i64:64-i128:128-f80:128-n8:16:32:64-S128"
target triple = "x86_64-unknown-linux-gnu"

%struct.RAMBlock = type { %struct.rcu_head, ptr, ptr, ptr, i64, i64, i64, ptr, i32, [256 x i8], %struct.anon.2, %struct.anon.3, i32, i64, i64, ptr, ptr, ptr, i8, i64 }
%struct.rcu_head = type { ptr, ptr }
%struct.anon.2 = type { ptr, ptr }
%struct.anon.3 = type { ptr }

; Function Attrs: nounwind sspstrong uwtable
define internal i32 @test_bit(i64 noundef %nr, ptr noundef %addr) #0 {
entry:
  %nr.addr = alloca i64, align 8
  %addr.addr = alloca ptr, align 8
  store i64 %nr, ptr %nr.addr, align 8
  store ptr %addr, ptr %addr.addr, align 8
  %0 = load ptr, ptr %addr.addr, align 8
  %1 = load i64, ptr %nr.addr, align 8
  %div = udiv i64 %1, 64
  %arrayidx = getelementptr i64, ptr %0, i64 %div
  %2 = load i64, ptr %arrayidx, align 8
  %3 = load i64, ptr %nr.addr, align 8
  %and = and i64 %3, 63
  %shr = lshr i64 %2, %and
  %and1 = and i64 1, %shr
  %conv = trunc i64 %and1 to i32
  ret i32 %conv
}

; Function Attrs: nounwind sspstrong uwtable
define internal i64 @ramblock_recv_bitmap_offset(ptr noundef %host_addr, ptr noundef %rb) #0 {
entry:
  %host_addr.addr = alloca ptr, align 8
  %rb.addr = alloca ptr, align 8
  %host_addr_offset = alloca i64, align 8
  store ptr %host_addr, ptr %host_addr.addr, align 8
  store ptr %rb, ptr %rb.addr, align 8
  %0 = load ptr, ptr %host_addr.addr, align 8
  %1 = load ptr, ptr %rb.addr, align 8
  %host = getelementptr inbounds %struct.RAMBlock, ptr %1, i32 0, i32 2
  %2 = load ptr, ptr %host, align 8
  %sub.ptr.lhs.cast = ptrtoint ptr %0 to i64
  %sub.ptr.rhs.cast = ptrtoint ptr %2 to i64
  %sub.ptr.sub = sub i64 %sub.ptr.lhs.cast, %sub.ptr.rhs.cast
  store i64 %sub.ptr.sub, ptr %host_addr_offset, align 8
  %3 = load i64, ptr %host_addr_offset, align 8
  %shr = lshr i64 %3, 12
  ret i64 %shr
}

; Function Attrs: nounwind sspstrong uwtable
define dso_local i32 @ramblock_recv_bitmap_test(ptr noundef %rb, ptr noundef %host_addr) #0 {
entry:
  %rb.addr = alloca ptr, align 8
  %host_addr.addr = alloca ptr, align 8
  store ptr %rb, ptr %rb.addr, align 8
  store ptr %host_addr, ptr %host_addr.addr, align 8
  %0 = load ptr, ptr %host_addr.addr, align 8
  %1 = load ptr, ptr %rb.addr, align 8
  %call = call i64 @ramblock_recv_bitmap_offset(ptr noundef %0, ptr noundef %1)
  %2 = load ptr, ptr %rb.addr, align 8
  %receivedmap = getelementptr inbounds %struct.RAMBlock, ptr %2, i32 0, i32 16
  %3 = load ptr, ptr %receivedmap, align 8
  %call1 = call i32 @test_bit(i64 noundef %call, ptr noundef %3)
  ret i32 %call1
}