; Function Attrs: mustprogress nofree norecurse nosync nounwind sspstrong willreturn memory(read, inaccessiblemem: none) uwtable
define dso_local range(i32 0, 2) i32 @ramblock_recv_bitmap_test(ptr noundef readonly captures(none) %rb, ptr noundef %host_addr) local_unnamed_addr #2 {
entry:
  %0 = getelementptr i8, ptr %rb, i64 24
  %rb.val = load ptr, ptr %0, align 8
  %sub.ptr.lhs.cast.i = ptrtoint ptr %host_addr to i64
  %sub.ptr.rhs.cast.i = ptrtoint ptr %rb.val to i64
  %sub.ptr.sub.i = sub i64 %sub.ptr.lhs.cast.i, %sub.ptr.rhs.cast.i
  %shr.i = lshr i64 %sub.ptr.sub.i, 12
  %receivedmap = getelementptr inbounds nuw i8, ptr %rb, i64 392
  %1 = load ptr, ptr %receivedmap, align 8
  %div2.i = lshr i64 %sub.ptr.sub.i, 18
  %arrayidx.i = getelementptr i64, ptr %1, i64 %div2.i
  %2 = load i64, ptr %arrayidx.i, align 8
  %and.i = and i64 %shr.i, 63
  %shr.i2 = lshr i64 %2, %and.i
  %3 = trunc i64 %shr.i2 to i32
  %conv.i = and i32 %3, 1
  ret i32 %conv.i
}